target datalayout = "e-m:e-p270:32:32-p271:32:32-p272:64:64-i64:64-i128:128-f80:128-n8:16:32:64-S128"
target triple = "x86_64-pc-linux-gnu"

%"class.google::protobuf::internal::RepeatedPtrIterator" = type { ptr }
%"class.sentencepiece::NBestSentencePieceText" = type <{ %"class.google::protobuf::MessageLite", %"class.google::protobuf::RepeatedPtrField.6", %"class.google::protobuf::internal::CachedSize", [4 x i8] }>
%"class.google::protobuf::MessageLite" = type { ptr, %"class.google::protobuf::internal::InternalMetadata" }
%"class.google::protobuf::internal::InternalMetadata" = type { ptr }
%"class.google::protobuf::RepeatedPtrField.6" = type { %"class.google::protobuf::internal::RepeatedPtrFieldBase" }
%"class.google::protobuf::internal::RepeatedPtrFieldBase" = type { ptr, i32, i32, ptr }
%"class.google::protobuf::internal::CachedSize" = type { %"struct.std::atomic" }
%"struct.std::atomic" = type { %"struct.std::__atomic_base" }
%"struct.std::__atomic_base" = type { i32 }
%"struct.google::protobuf::internal::RepeatedPtrFieldBase::Rep" = type { i32, [268435454 x ptr] }

; Function Attrs: mustprogress nounwind uwtable
define linkonce_odr noundef i32 @_ZNK6google8protobuf8internal20RepeatedPtrFieldBase4sizeEv(ptr noundef nonnull align 8 dereferenceable(24) %0) #5 comdat align 2 {
  %2 = alloca ptr, align 8
  store ptr %0, ptr %2, align 8
  %3 = load ptr, ptr %2, align 8
  %4 = getelementptr inbounds %"class.google::protobuf::internal::RepeatedPtrFieldBase", ptr %3, i32 0, i32 1
  %5 = load i32, ptr %4, align 8
  ret i32 %5
}

; Function Attrs: mustprogress uwtable
define linkonce_odr noundef i32 @_ZNK6google8protobuf16RepeatedPtrFieldIN13sentencepiece17SentencePieceTextEE4sizeEv(ptr noundef nonnull align 8 dereferenceable(24) %0) #4 comdat align 2 {
  %2 = alloca ptr, align 8
  store ptr %0, ptr %2, align 8
  %3 = load ptr, ptr %2, align 8
  %4 = call noundef i32 @_ZNK6google8protobuf8internal20RepeatedPtrFieldBase4sizeEv(ptr noundef nonnull align 8 dereferenceable(24) %3)
  ret i32 %4
}

; Function Attrs: mustprogress nounwind uwtable
define linkonce_odr void @_ZN6google8protobuf8internal19RepeatedPtrIteratorIN13sentencepiece17SentencePieceTextEEC2EPKPv(ptr noundef nonnull align 8 dereferenceable(8) %0, ptr noundef %1) unnamed_addr #5 comdat align 2 {
  %3 = alloca ptr, align 8
  %4 = alloca ptr, align 8
  store ptr %0, ptr %3, align 8
  store ptr %1, ptr %4, align 8
  %5 = load ptr, ptr %3, align 8
  %6 = getelementptr inbounds %"class.google::protobuf::internal::RepeatedPtrIterator", ptr %5, i32 0, i32 0
  %7 = load ptr, ptr %4, align 8
  store ptr %7, ptr %6, align 8
  ret void
}

; Function Attrs: mustprogress nounwind uwtable
define linkonce_odr noundef ptr @_ZNK6google8protobuf8internal20RepeatedPtrFieldBase8raw_dataEv(ptr noundef nonnull align 8 dereferenceable(24) %0) #5 comdat align 2 {
  %2 = alloca ptr, align 8
  store ptr %0, ptr %2, align 8
  %3 = load ptr, ptr %2, align 8
  %4 = getelementptr inbounds %"class.google::protobuf::internal::RepeatedPtrFieldBase", ptr %3, i32 0, i32 3
  %5 = load ptr, ptr %4, align 8
  %6 = icmp ne ptr %5, null
  br i1 %6, label %7, label %12

7:                                                ; preds = %1
  %8 = getelementptr inbounds %"class.google::protobuf::internal::RepeatedPtrFieldBase", ptr %3, i32 0, i32 3
  %9 = load ptr, ptr %8, align 8
  %10 = getelementptr inbounds %"struct.google::protobuf::internal::RepeatedPtrFieldBase::Rep", ptr %9, i32 0, i32 1
  %11 = getelementptr inbounds [268435454 x ptr], ptr %10, i64 0, i64 0
  br label %13

12:                                               ; preds = %1
  br label %13

13:                                               ; preds = %12, %7
  %14 = phi ptr [ %11, %7 ], [ null, %12 ]
  ret ptr %14
}

; Function Attrs: mustprogress nounwind uwtable
define linkonce_odr noundef nonnull align 8 dereferenceable(8) ptr @_ZN6google8protobuf8internal19RepeatedPtrIteratorIN13sentencepiece17SentencePieceTextEEppEv(ptr noundef nonnull align 8 dereferenceable(8) %0) #5 comdat align 2 {
  %2 = alloca ptr, align 8
  store ptr %0, ptr %2, align 8
  %3 = load ptr, ptr %2, align 8
  %4 = getelementptr inbounds %"class.google::protobuf::internal::RepeatedPtrIterator", ptr %3, i32 0, i32 0
  %5 = load ptr, ptr %4, align 8
  %6 = getelementptr inbounds ptr, ptr %5, i32 1
  store ptr %6, ptr %4, align 8
  ret ptr %3
}

; Function Attrs: mustprogress nounwind uwtable
define linkonce_odr noundef nonnull align 8 dereferenceable(88) ptr @_ZNK6google8protobuf8internal19RepeatedPtrIteratorIN13sentencepiece17SentencePieceTextEEdeEv(ptr noundef nonnull align 8 dereferenceable(8) %0) #5 comdat align 2 {
  %2 = alloca ptr, align 8
  store ptr %0, ptr %2, align 8
  %3 = load ptr, ptr %2, align 8
  %4 = getelementptr inbounds %"class.google::protobuf::internal::RepeatedPtrIterator", ptr %3, i32 0, i32 0
  %5 = load ptr, ptr %4, align 8
  %6 = load ptr, ptr %5, align 8
  ret ptr %6
}

; Function Attrs: mustprogress nounwind uwtable
define linkonce_odr noundef zeroext i1 @_ZNK6google8protobuf8internal19RepeatedPtrIteratorIN13sentencepiece17SentencePieceTextEEneERKS5_(ptr noundef nonnull align 8 dereferenceable(8) %0, ptr noundef nonnull align 8 dereferenceable(8) %1) #5 comdat align 2 {
  %3 = alloca ptr, align 8
  %4 = alloca ptr, align 8
  store ptr %0, ptr %3, align 8
  store ptr %1, ptr %4, align 8
  %5 = load ptr, ptr %3, align 8
  %6 = getelementptr inbounds %"class.google::protobuf::internal::RepeatedPtrIterator", ptr %5, i32 0, i32 0
  %7 = load ptr, ptr %6, align 8
  %8 = load ptr, ptr %4, align 8
  %9 = getelementptr inbounds %"class.google::protobuf::internal::RepeatedPtrIterator", ptr %8, i32 0, i32 0
  %10 = load ptr, ptr %9, align 8
  %11 = icmp ne ptr %7, %10
  ret i1 %11
}

; Function Attrs: mustprogress uwtable
define linkonce_odr ptr @_ZN6google8protobuf16RepeatedPtrFieldIN13sentencepiece17SentencePieceTextEE3endEv(ptr noundef nonnull align 8 dereferenceable(24) %0) #4 comdat align 2 {
  %2 = alloca %"class.google::protobuf::internal::RepeatedPtrIterator", align 8
  %3 = alloca ptr, align 8
  store ptr %0, ptr %3, align 8
  %4 = load ptr, ptr %3, align 8
  %5 = call noundef ptr @_ZNK6google8protobuf8internal20RepeatedPtrFieldBase8raw_dataEv(ptr noundef nonnull align 8 dereferenceable(24) %4)
  %6 = call noundef i32 @_ZNK6google8protobuf16RepeatedPtrFieldIN13sentencepiece17SentencePieceTextEE4sizeEv(ptr noundef nonnull align 8 dereferenceable(24) %4)
  %7 = sext i32 %6 to i64
  %8 = getelementptr inbounds ptr, ptr %5, i64 %7
  call void @_ZN6google8protobuf8internal19RepeatedPtrIteratorIN13sentencepiece17SentencePieceTextEEC2EPKPv(ptr noundef nonnull align 8 dereferenceable(8) %2, ptr noundef %8)
  %9 = getelementptr inbounds %"class.google::protobuf::internal::RepeatedPtrIterator", ptr %2, i32 0, i32 0
  %10 = load ptr, ptr %9, align 8
  ret ptr %10
}

; Function Attrs: mustprogress uwtable
define linkonce_odr ptr @_ZN6google8protobuf16RepeatedPtrFieldIN13sentencepiece17SentencePieceTextEE5beginEv(ptr noundef nonnull align 8 dereferenceable(24) %0) #4 comdat align 2 {
  %2 = alloca %"class.google::protobuf::internal::RepeatedPtrIterator", align 8
  %3 = alloca ptr, align 8
  store ptr %0, ptr %3, align 8
  %4 = load ptr, ptr %3, align 8
  %5 = call noundef ptr @_ZNK6google8protobuf8internal20RepeatedPtrFieldBase8raw_dataEv(ptr noundef nonnull align 8 dereferenceable(24) %4)
  call void @_ZN6google8protobuf8internal19RepeatedPtrIteratorIN13sentencepiece17SentencePieceTextEEC2EPKPv(ptr noundef nonnull align 8 dereferenceable(8) %2, ptr noundef %5)
  %6 = getelementptr inbounds %"class.google::protobuf::internal::RepeatedPtrIterator", ptr %2, i32 0, i32 0
  %7 = load ptr, ptr %6, align 8
  ret ptr %7
}

; Function Attrs: mustprogress nounwind uwtable
define linkonce_odr noundef ptr @_ZN13sentencepiece22NBestSentencePieceText14mutable_nbestsEv(ptr noundef nonnull align 8 dereferenceable(48) %0) #5 comdat align 2 {
  %2 = alloca ptr, align 8
  store ptr %0, ptr %2, align 8
  %3 = load ptr, ptr %2, align 8
  %4 = getelementptr inbounds %"class.sentencepiece::NBestSentencePieceText", ptr %3, i32 0, i32 1
  ret ptr %4
}

; Function Attrs: mustprogress uwtable
define void @_ZN13sentencepiece31ImmutableNBestSentencePieceText21ConvertToUnicodeSpansEv(ptr noundef nonnull align 8 dereferenceable(24) %0) #4 align 2 {
  %2 = alloca ptr, align 8
  %3 = alloca ptr, align 8
  %4 = alloca %"class.google::protobuf::internal::RepeatedPtrIterator", align 8
  %5 = alloca %"class.google::protobuf::internal::RepeatedPtrIterator", align 8
  %6 = alloca ptr, align 8
  store ptr %0, ptr %2, align 8
  %7 = load ptr, ptr %2, align 8
  %8 = call noundef ptr @_ZN13sentencepiece31ImmutableNBestSentencePieceText13mutable_protoEv(ptr noundef nonnull align 8 dereferenceable(24) %7)
  %9 = icmp ne ptr %8, null
  br i1 %9, label %11, label %10

10:                                               ; preds = %1
  br label %27

11:                                               ; preds = %1
  %12 = call noundef ptr @_ZN13sentencepiece31ImmutableNBestSentencePieceText13mutable_protoEv(ptr noundef nonnull align 8 dereferenceable(24) %7)
  %13 = call noundef ptr @_ZN13sentencepiece22NBestSentencePieceText14mutable_nbestsEv(ptr noundef nonnull align 8 dereferenceable(48) %12)
  store ptr %13, ptr %3, align 8
  %14 = load ptr, ptr %3, align 8
  %15 = call ptr @_ZN6google8protobuf16RepeatedPtrFieldIN13sentencepiece17SentencePieceTextEE5beginEv(ptr noundef nonnull align 8 dereferenceable(24) %14)
  %16 = getelementptr inbounds %"class.google::protobuf::internal::RepeatedPtrIterator", ptr %4, i32 0, i32 0
  store ptr %15, ptr %16, align 8
  %17 = load ptr, ptr %3, align 8
  %18 = call ptr @_ZN6google8protobuf16RepeatedPtrFieldIN13sentencepiece17SentencePieceTextEE3endEv(ptr noundef nonnull align 8 dereferenceable(24) %17)
  %19 = getelementptr inbounds %"class.google::protobuf::internal::RepeatedPtrIterator", ptr %5, i32 0, i32 0
  store ptr %18, ptr %19, align 8
  br label %20

20:                                               ; preds = %25, %11
  %21 = call noundef zeroext i1 @_ZNK6google8protobuf8internal19RepeatedPtrIteratorIN13sentencepiece17SentencePieceTextEEneERKS5_(ptr noundef nonnull align 8 dereferenceable(8) %4, ptr noundef nonnull align 8 dereferenceable(8) %5)
  br i1 %21, label %22, label %27

22:                                               ; preds = %20
  %23 = call noundef nonnull align 8 dereferenceable(88) ptr @_ZNK6google8protobuf8internal19RepeatedPtrIteratorIN13sentencepiece17SentencePieceTextEEdeEv(ptr noundef nonnull align 8 dereferenceable(8) %4)
  store ptr %23, ptr %6, align 8
  %24 = load ptr, ptr %6, align 8
  call void @_ZN13sentencepiece12_GLOBAL__N_129ConvertToUnicodeSpansInternalEPNS_17SentencePieceTextE(ptr noundef %24)
  br label %25

25:                                               ; preds = %22
  %26 = call noundef nonnull align 8 dereferenceable(8) ptr @_ZN6google8protobuf8internal19RepeatedPtrIteratorIN13sentencepiece17SentencePieceTextEEppEv(ptr noundef nonnull align 8 dereferenceable(8) %4)
  br label %20

27:                                               ; preds = %20, %10
  ret void
}