; Function Attrs: mustprogress uwtable
define void @_ZN13sentencepiece31ImmutableNBestSentencePieceText21ConvertToUnicodeSpansEv(ptr nocapture noundef nonnull align 8 dereferenceable(24) %0) local_unnamed_addr #3 align 2 {
  %2 = tail call noundef ptr @_ZN13sentencepiece31ImmutableNBestSentencePieceText13mutable_protoEv(ptr noundef nonnull align 8 dereferenceable(24) %0)
  %.not = icmp eq ptr %2, null
  br i1 %.not, label %.loopexit, label %3

3:                                                ; preds = %1
  %4 = tail call noundef ptr @_ZN13sentencepiece31ImmutableNBestSentencePieceText13mutable_protoEv(ptr noundef nonnull align 8 dereferenceable(24) %0)
  %5 = getelementptr inbounds i8, ptr %4, i64 32
  %6 = load ptr, ptr %5, align 8
  %.not.i.i = icmp eq ptr %6, null
  %7 = getelementptr inbounds i8, ptr %6, i64 8
  %spec.select.i.i = select i1 %.not.i.i, ptr null, ptr %7
  %8 = getelementptr inbounds i8, ptr %4, i64 24
  %9 = load i32, ptr %8, align 8
  %10 = sext i32 %9 to i64
  %11 = getelementptr inbounds ptr, ptr %spec.select.i.i, i64 %10
  %.not910 = icmp eq i32 %9, 0
  br i1 %.not910, label %.loopexit, label %.lr.ph

.lr.ph:                                           ; preds = %3, %.lr.ph
  %.sroa.06.011 = phi ptr [ %13, %.lr.ph ], [ %spec.select.i.i, %3 ]
  %12 = load ptr, ptr %.sroa.06.011, align 8
  tail call fastcc void @_ZN13sentencepiece12_GLOBAL__N_129ConvertToUnicodeSpansInternalEPNS_17SentencePieceTextE(ptr noundef nonnull %12)
  %13 = getelementptr inbounds i8, ptr %.sroa.06.011, i64 8
  %.not9 = icmp eq ptr %13, %11
  br i1 %.not9, label %.loopexit, label %.lr.ph

.loopexit:                                        ; preds = %.lr.ph, %3, %1
  ret void
}